target datalayout = "e-m:e-p270:32:32-p271:32:32-p272:64:64-i64:64-i128:128-f80:128-n8:16:32:64-S128"
target triple = "x86_64-pc-linux-gnu"

; Function Attrs: mustprogress uwtable
define hidden noundef ptr @_ZN2qe12mk_dl_pluginERNS_16i_solver_contextE(ptr noundef nonnull align 8 dereferenceable(48) %0) #4 {
  %2 = alloca ptr, align 8
  store ptr %0, ptr %2, align 8, !tbaa !3
  %3 = call noalias noundef ptr @_ZN6memory8allocateEm(i64 noundef 240)
  %4 = load ptr, ptr %2, align 8, !tbaa !3
  %5 = load ptr, ptr %2, align 8, !tbaa !3
  %6 = load ptr, ptr %5, align 8, !tbaa !8
  %7 = getelementptr inbounds ptr, ptr %6, i64 2
  %8 = load ptr, ptr %7, align 8
  %9 = call noundef nonnull align 8 dereferenceable(976) ptr %8(ptr noundef nonnull align 8 dereferenceable(48) %5)
  call void @_ZN2qe9dl_pluginC2ERNS_16i_solver_contextER11ast_manager(ptr noundef nonnull align 8 dereferenceable(240) %3, ptr noundef nonnull align 8 dereferenceable(48) %4, ptr noundef nonnull align 8 dereferenceable(976) %9)
  ret ptr %3
}