; Function Attrs: mustprogress uwtable
define hidden noundef ptr @_ZN2qe12mk_dl_pluginERNS_16i_solver_contextE(ptr noundef nonnull align 8 dereferenceable(48) %0) local_unnamed_addr #3 {
  %2 = tail call noalias noundef ptr @_ZN6memory8allocateEm(i64 noundef 240)
  %3 = load ptr, ptr %0, align 8, !tbaa !3
  %4 = getelementptr inbounds nuw i8, ptr %3, i64 16
  %5 = load ptr, ptr %4, align 8
  %6 = tail call noundef nonnull align 8 dereferenceable(976) ptr %5(ptr noundef nonnull align 8 dereferenceable(48) %0)
  tail call void @_ZN2qe9dl_pluginC2ERNS_16i_solver_contextER11ast_manager(ptr noundef nonnull align 8 dereferenceable(240) %2, ptr noundef nonnull align 8 dereferenceable(48) %0, ptr noundef nonnull align 8 dereferenceable(976) %6)
  ret ptr %2
}